; ModuleID = '11/766.c'
source_filename = "11/766.c"
target datalayout = "e-m:e-p270:32:32-p271:32:32-p272:64:64-i64:64-f80:128-n8:16:32:64-S128"
target triple = "x86_64-pc-linux-gnu"

@.str = private unnamed_addr constant [9 x i8] c"%d %d %d\00", align 1
@__const.main.d = private unnamed_addr constant [11 x i32] [i32 31, i32 29, i32 31, i32 30, i32 31, i32 30, i32 31, i32 31, i32 30, i32 31, i32 30], align 16
@__const.main.d.1 = private unnamed_addr constant [11 x i32] [i32 31, i32 28, i32 31, i32 30, i32 31, i32 30, i32 31, i32 31, i32 30, i32 31, i32 30], align 16
@.str.2 = private unnamed_addr constant [3 x i8] c"%d\00", align 1

; Function Attrs: noinline nounwind uwtable
define dso_local i32 @m(i32 %0) #0 {
  %2 = alloca i32, align 4
  %3 = alloca i32, align 4
  store i32 %0, i32* %3, align 4
  %4 = load i32, i32* %3, align 4
  %5 = srem i32 %4, 100
  %6 = icmp ne i32 %5, 0
  br i1 %6, label %7, label %13

7:                                                ; preds = %1
  %8 = load i32, i32* %3, align 4
  %9 = srem i32 %8, 4
  %10 = icmp eq i32 %9, 0
  br i1 %10, label %11, label %12

11:                                               ; preds = %7
  store i32 1, i32* %2, align 4
  br label %19

12:                                               ; preds = %7
  store i32 0, i32* %2, align 4
  br label %19

13:                                               ; preds = %1
  %14 = load i32, i32* %3, align 4
  %15 = srem i32 %14, 400
  %16 = icmp eq i32 %15, 0
  br i1 %16, label %17, label %18

17:                                               ; preds = %13
  store i32 1, i32* %2, align 4
  br label %19

18:                                               ; preds = %13
  store i32 0, i32* %2, align 4
  br label %19

19:                                               ; preds = %18, %17, %12, %11
  %20 = load i32, i32* %2, align 4
  ret i32 %20
}

; Function Attrs: noinline nounwind uwtable
define dso_local i32 @main() #0 {
  %1 = alloca i32, align 4
  %2 = alloca i32, align 4
  %3 = alloca i32, align 4
  %4 = alloca i32, align 4
  %5 = alloca i32, align 4
  %6 = alloca i32, align 4
  %7 = alloca [11 x i32], align 16
  %8 = alloca [11 x i32], align 16
  store i32 0, i32* %1, align 4
  store i32 0, i32* %5, align 4
  %9 = call i32 (i8*, ...) @__isoc99_scanf(i8* getelementptr inbounds ([9 x i8], [9 x i8]* @.str, i64 0, i64 0), i32* %2, i32* %3, i32* %4)
  %10 = load i32, i32* %2, align 4
  %11 = call i32 @m(i32 %10)
  %12 = icmp eq i32 %11, 1
  br i1 %12, label %13, label %34

13:                                               ; preds = %0
  %14 = bitcast [11 x i32]* %7 to i8*
  call void @llvm.memcpy.p0i8.p0i8.i64(i8* align 16 %14, i8* align 16 bitcast ([11 x i32]* @__const.main.d to i8*), i64 44, i1 false)
  store i32 1, i32* %6, align 4
  br label %15

15:                                               ; preds = %27, %13
  %16 = load i32, i32* %6, align 4
  %17 = load i32, i32* %3, align 4
  %18 = icmp slt i32 %16, %17
  br i1 %18, label %19, label %30

19:                                               ; preds = %15
  %20 = load i32, i32* %5, align 4
  %21 = load i32, i32* %6, align 4
  %22 = sub nsw i32 %21, 1
  %23 = sext i32 %22 to i64
  %24 = getelementptr inbounds [11 x i32], [11 x i32]* %7, i64 0, i64 %23
  %25 = load i32, i32* %24, align 4
  %26 = add nsw i32 %20, %25
  store i32 %26, i32* %5, align 4
  br label %27

27:                                               ; preds = %19
  %28 = load i32, i32* %6, align 4
  %29 = add nsw i32 %28, 1
  store i32 %29, i32* %6, align 4
  br label %15

30:                                               ; preds = %15
  %31 = load i32, i32* %5, align 4
  %32 = load i32, i32* %4, align 4
  %33 = add nsw i32 %31, %32
  store i32 %33, i32* %5, align 4
  br label %55

34:                                               ; preds = %0
  %35 = bitcast [11 x i32]* %8 to i8*
  call void @llvm.memcpy.p0i8.p0i8.i64(i8* align 16 %35, i8* align 16 bitcast ([11 x i32]* @__const.main.d.1 to i8*), i64 44, i1 false)
  store i32 1, i32* %6, align 4
  br label %36

36:                                               ; preds = %48, %34
  %37 = load i32, i32* %6, align 4
  %38 = load i32, i32* %3, align 4
  %39 = icmp slt i32 %37, %38
  br i1 %39, label %40, label %51

40:                                               ; preds = %36
  %41 = load i32, i32* %5, align 4
  %42 = load i32, i32* %6, align 4
  %43 = sub nsw i32 %42, 1
  %44 = sext i32 %43 to i64
  %45 = getelementptr inbounds [11 x i32], [11 x i32]* %8, i64 0, i64 %44
  %46 = load i32, i32* %45, align 4
  %47 = add nsw i32 %41, %46
  store i32 %47, i32* %5, align 4
  br label %48

48:                                               ; preds = %40
  %49 = load i32, i32* %6, align 4
  %50 = add nsw i32 %49, 1
  store i32 %50, i32* %6, align 4
  br label %36

51:                                               ; preds = %36
  %52 = load i32, i32* %5, align 4
  %53 = load i32, i32* %4, align 4
  %54 = add nsw i32 %52, %53
  store i32 %54, i32* %5, align 4
  br label %55

55:                                               ; preds = %51, %30
  %56 = load i32, i32* %5, align 4
  %57 = call i32 (i8*, ...) @printf(i8* getelementptr inbounds ([3 x i8], [3 x i8]* @.str.2, i64 0, i64 0), i32 %56)
  %58 = call i32 @getchar()
  %59 = call i32 @getchar()
  %60 = load i32, i32* %1, align 4
  ret i32 %60
}

declare dso_local i32 @__isoc99_scanf(i8*, ...) #1

; Function Attrs: argmemonly nounwind willreturn
declare void @llvm.memcpy.p0i8.p0i8.i64(i8* noalias nocapture writeonly, i8* noalias nocapture readonly, i64, i1 immarg) #2

declare dso_local i32 @printf(i8*, ...) #1

declare dso_local i32 @getchar() #1


!llvm.module.flags = !{!0}
!llvm.ident = !{!1}

!0 = !{i32 1, !"wchar_size", i32 4}
!1 = !{!"clang version 10.0.0-4ubuntu1 "}
